target datalayout = "e-m:e-p270:32:32-p271:32:32-p272:64:64-i64:64-i128:128-f80:128-n8:16:32:64-S128"
target triple = "x86_64-pc-linux-gnu"

%"class.zmq::v1_decoder_t" = type { %"class.zmq::decoder_base_t", [8 x i8], %"class.zmq::msg_t", i64 }
%"class.zmq::decoder_base_t" = type { %"class.zmq::i_decoder", { i64, i64 }, ptr, i64, %"class.zmq::c_single_allocator", ptr }
%"class.zmq::i_decoder" = type { ptr }
%"class.zmq::c_single_allocator" = type { i64, ptr }
%"class.zmq::msg_t" = type { %union.anon }
%union.anon = type { %struct.anon }
%struct.anon = type { ptr, [34 x i8], i8, i8, i32, %"union.zmq::msg_t::group_t" }
%"union.zmq::msg_t::group_t" = type { %struct.anon.1 }
%struct.anon.1 = type { i8, ptr }

@stderr = external global ptr, align 8
@.str = private unnamed_addr constant [12 x i8] c"%s (%s:%d)\0A\00", align 1
@.str.1 = private unnamed_addr constant [110 x i8] c"generated/home/dtcxzyw/WorkSpace/Projects/compilers/llvm-opt-benchmark/bench/libzmq/libzmq/src/v1_decoder.cpp\00", align 1

; Function Attrs: mustprogress nounwind uwtable
define linkonce_odr void @_ZN3zmq14decoder_base_tINS_12v1_decoder_tENS_18c_single_allocatorEE9next_stepEPvmMS1_FiPKhE(ptr noundef nonnull align 8 dereferenceable(64) %0, ptr noundef %1, i64 noundef %2, i64 %3, i64 %4) #6 comdat align 2 {
  %6 = alloca { i64, i64 }, align 8
  %7 = alloca ptr, align 8
  %8 = alloca ptr, align 8
  %9 = alloca i64, align 8
  %10 = alloca { i64, i64 }, align 8
  %11 = getelementptr inbounds nuw { i64, i64 }, ptr %6, i32 0, i32 0
  store i64 %3, ptr %11, align 8
  %12 = getelementptr inbounds nuw { i64, i64 }, ptr %6, i32 0, i32 1
  store i64 %4, ptr %12, align 8
  %13 = load { i64, i64 }, ptr %6, align 8, !tbaa !24
  store ptr %0, ptr %7, align 8, !tbaa !25
  store ptr %1, ptr %8, align 8, !tbaa !31
  store i64 %2, ptr %9, align 8, !tbaa !8
  store { i64, i64 } %13, ptr %10, align 8, !tbaa !24
  %14 = load ptr, ptr %7, align 8
  %15 = load ptr, ptr %8, align 8, !tbaa !31
  %16 = getelementptr inbounds nuw %"class.zmq::decoder_base_t", ptr %14, i32 0, i32 2
  store ptr %15, ptr %16, align 8, !tbaa !28
  %17 = load i64, ptr %9, align 8, !tbaa !8
  %18 = getelementptr inbounds nuw %"class.zmq::decoder_base_t", ptr %14, i32 0, i32 3
  store i64 %17, ptr %18, align 8, !tbaa !29
  %19 = load { i64, i64 }, ptr %10, align 8, !tbaa !24
  %20 = getelementptr inbounds nuw %"class.zmq::decoder_base_t", ptr %14, i32 0, i32 1
  store { i64, i64 } %19, ptr %20, align 8, !tbaa !27
  ret void
}

; Function Attrs: mustprogress nounwind uwtable
define linkonce_odr noundef i64 @_ZNSt14numeric_limitsImE3maxEv() #6 comdat align 2 {
  ret i64 -1
}

; Function Attrs: inlinehint mustprogress nounwind uwtable
define linkonce_odr noundef i64 @_ZN3zmq10get_uint64EPKh(ptr noundef %0) #9 comdat {
  %2 = alloca ptr, align 8
  store ptr %0, ptr %2, align 8, !tbaa !21
  %3 = load ptr, ptr %2, align 8, !tbaa !21
  %4 = getelementptr inbounds i8, ptr %3, i64 0
  %5 = load i8, ptr %4, align 1, !tbaa !24
  %6 = zext i8 %5 to i64
  %7 = shl i64 %6, 56
  %8 = load ptr, ptr %2, align 8, !tbaa !21
  %9 = getelementptr inbounds i8, ptr %8, i64 1
  %10 = load i8, ptr %9, align 1, !tbaa !24
  %11 = zext i8 %10 to i64
  %12 = shl i64 %11, 48
  %13 = or i64 %7, %12
  %14 = load ptr, ptr %2, align 8, !tbaa !21
  %15 = getelementptr inbounds i8, ptr %14, i64 2
  %16 = load i8, ptr %15, align 1, !tbaa !24
  %17 = zext i8 %16 to i64
  %18 = shl i64 %17, 40
  %19 = or i64 %13, %18
  %20 = load ptr, ptr %2, align 8, !tbaa !21
  %21 = getelementptr inbounds i8, ptr %20, i64 3
  %22 = load i8, ptr %21, align 1, !tbaa !24
  %23 = zext i8 %22 to i64
  %24 = shl i64 %23, 32
  %25 = or i64 %19, %24
  %26 = load ptr, ptr %2, align 8, !tbaa !21
  %27 = getelementptr inbounds i8, ptr %26, i64 4
  %28 = load i8, ptr %27, align 1, !tbaa !24
  %29 = zext i8 %28 to i64
  %30 = shl i64 %29, 24
  %31 = or i64 %25, %30
  %32 = load ptr, ptr %2, align 8, !tbaa !21
  %33 = getelementptr inbounds i8, ptr %32, i64 5
  %34 = load i8, ptr %33, align 1, !tbaa !24
  %35 = zext i8 %34 to i64
  %36 = shl i64 %35, 16
  %37 = or i64 %31, %36
  %38 = load ptr, ptr %2, align 8, !tbaa !21
  %39 = getelementptr inbounds i8, ptr %38, i64 6
  %40 = load i8, ptr %39, align 1, !tbaa !24
  %41 = zext i8 %40 to i64
  %42 = shl i64 %41, 8
  %43 = or i64 %37, %42
  %44 = load ptr, ptr %2, align 8, !tbaa !21
  %45 = getelementptr inbounds i8, ptr %44, i64 7
  %46 = load i8, ptr %45, align 1, !tbaa !24
  %47 = zext i8 %46 to i64
  %48 = or i64 %43, %47
  ret i64 %48
}

; Function Attrs: mustprogress uwtable
define noundef i32 @_ZN3zmq12v1_decoder_t21eight_byte_size_readyEPKh(ptr noundef nonnull align 8 dereferenceable(144) %0, ptr noundef %1) #0 align 2 {
  %3 = alloca i32, align 4
  %4 = alloca ptr, align 8
  %5 = alloca ptr, align 8
  %6 = alloca i64, align 8
  %7 = alloca i32, align 4
  %8 = alloca i64, align 8
  %9 = alloca i32, align 4
  %10 = alloca ptr, align 8
  %11 = alloca ptr, align 8
  %12 = alloca { i64, i64 }, align 8
  store ptr %0, ptr %4, align 8, !tbaa !3
  store ptr %1, ptr %5, align 8, !tbaa !21
  %13 = load ptr, ptr %4, align 8
  call void @llvm.lifetime.start.p0(i64 8, ptr %6) #13
  %14 = getelementptr inbounds nuw %"class.zmq::v1_decoder_t", ptr %13, i32 0, i32 1
  %15 = getelementptr inbounds [8 x i8], ptr %14, i64 0, i64 0
  %16 = call noundef i64 @_ZN3zmq10get_uint64EPKh(ptr noundef %15)
  store i64 %16, ptr %6, align 8, !tbaa !8
  %17 = load i64, ptr %6, align 8, !tbaa !8
  %18 = icmp eq i64 %17, 0
  br i1 %18, label %19, label %21

19:                                               ; preds = %2
  %20 = call ptr @__errno_location() #14
  store i32 71, ptr %20, align 4, !tbaa !19
  store i32 -1, ptr %3, align 4
  store i32 1, ptr %7, align 4
  br label %103

21:                                               ; preds = %2
  %22 = getelementptr inbounds nuw %"class.zmq::v1_decoder_t", ptr %13, i32 0, i32 3
  %23 = load i64, ptr %22, align 8, !tbaa !12
  %24 = icmp sge i64 %23, 0
  br i1 %24, label %25, label %33

25:                                               ; preds = %21
  %26 = load i64, ptr %6, align 8, !tbaa !8
  %27 = sub i64 %26, 1
  %28 = getelementptr inbounds nuw %"class.zmq::v1_decoder_t", ptr %13, i32 0, i32 3
  %29 = load i64, ptr %28, align 8, !tbaa !12
  %30 = icmp ugt i64 %27, %29
  br i1 %30, label %31, label %33

31:                                               ; preds = %25
  %32 = call ptr @__errno_location() #14
  store i32 90, ptr %32, align 4, !tbaa !19
  store i32 -1, ptr %3, align 4
  store i32 1, ptr %7, align 4
  br label %103

33:                                               ; preds = %25, %21
  %34 = load i64, ptr %6, align 8, !tbaa !8
  %35 = sub i64 %34, 1
  %36 = call noundef i64 @_ZNSt14numeric_limitsImE3maxEv() #13
  %37 = icmp ugt i64 %35, %36
  br i1 %37, label %38, label %40

38:                                               ; preds = %33
  %39 = call ptr @__errno_location() #14
  store i32 90, ptr %39, align 4, !tbaa !19
  store i32 -1, ptr %3, align 4
  store i32 1, ptr %7, align 4
  br label %103

40:                                               ; preds = %33
  call void @llvm.lifetime.start.p0(i64 8, ptr %8) #13
  %41 = load i64, ptr %6, align 8, !tbaa !8
  %42 = sub i64 %41, 1
  store i64 %42, ptr %8, align 8, !tbaa !8
  call void @llvm.lifetime.start.p0(i64 4, ptr %9) #13
  %43 = getelementptr inbounds nuw %"class.zmq::v1_decoder_t", ptr %13, i32 0, i32 2
  %44 = call noundef i32 @_ZN3zmq5msg_t5closeEv(ptr noundef nonnull align 8 dereferenceable(64) %43)
  store i32 %44, ptr %9, align 4, !tbaa !19
  %45 = getelementptr inbounds nuw %"class.zmq::v1_decoder_t", ptr %13, i32 0, i32 2
  %46 = load i64, ptr %8, align 8, !tbaa !8
  %47 = call noundef i32 @_ZN3zmq5msg_t9init_sizeEm(ptr noundef nonnull align 8 dereferenceable(64) %45, i64 noundef %46)
  store i32 %47, ptr %9, align 4, !tbaa !19
  %48 = load i32, ptr %9, align 4, !tbaa !19
  %49 = icmp ne i32 %48, 0
  br i1 %49, label %50, label %95

50:                                               ; preds = %40
  br label %51

51:                                               ; preds = %50
  %52 = call ptr @__errno_location() #14
  %53 = load i32, ptr %52, align 4, !tbaa !19
  %54 = icmp eq i32 %53, 12
  %55 = xor i1 %54, true
  %56 = zext i1 %55 to i64
  %57 = call i64 @llvm.expect.i64(i64 %56, i64 0)
  %58 = icmp ne i64 %57, 0
  br i1 %58, label %59, label %69

59:                                               ; preds = %51
  call void @llvm.lifetime.start.p0(i64 8, ptr %10) #13
  %60 = call ptr @__errno_location() #14
  %61 = load i32, ptr %60, align 4, !tbaa !19
  %62 = call ptr @strerror(i32 noundef %61) #13
  store ptr %62, ptr %10, align 8, !tbaa !21
  %63 = load ptr, ptr @stderr, align 8, !tbaa !22
  %64 = load ptr, ptr %10, align 8, !tbaa !21
  %65 = call i32 (ptr, ptr, ...) @fprintf(ptr noundef %63, ptr noundef @.str, ptr noundef %64, ptr noundef @.str.1, i32 noundef 100) #13
  %66 = load ptr, ptr @stderr, align 8, !tbaa !22
  %67 = call i32 @fflush(ptr noundef %66)
  %68 = load ptr, ptr %10, align 8, !tbaa !21
  call void @_ZN3zmq9zmq_abortEPKc(ptr noundef %68)
  call void @llvm.lifetime.end.p0(i64 8, ptr %10) #13
  br label %69

69:                                               ; preds = %59, %51
  br label %70

70:                                               ; preds = %69
  br label %71

71:                                               ; preds = %70
  %72 = getelementptr inbounds nuw %"class.zmq::v1_decoder_t", ptr %13, i32 0, i32 2
  %73 = call noundef i32 @_ZN3zmq5msg_t4initEv(ptr noundef nonnull align 8 dereferenceable(64) %72)
  store i32 %73, ptr %9, align 4, !tbaa !19
  br label %74

74:                                               ; preds = %71
  %75 = load i32, ptr %9, align 4, !tbaa !19
  %76 = icmp eq i32 %75, 0
  %77 = xor i1 %76, true
  %78 = zext i1 %77 to i64
  %79 = call i64 @llvm.expect.i64(i64 %78, i64 0)
  %80 = icmp ne i64 %79, 0
  br i1 %80, label %81, label %91

81:                                               ; preds = %74
  call void @llvm.lifetime.start.p0(i64 8, ptr %11) #13
  %82 = call ptr @__errno_location() #14
  %83 = load i32, ptr %82, align 4, !tbaa !19
  %84 = call ptr @strerror(i32 noundef %83) #13
  store ptr %84, ptr %11, align 8, !tbaa !21
  %85 = load ptr, ptr @stderr, align 8, !tbaa !22
  %86 = load ptr, ptr %11, align 8, !tbaa !21
  %87 = call i32 (ptr, ptr, ...) @fprintf(ptr noundef %85, ptr noundef @.str, ptr noundef %86, ptr noundef @.str.1, i32 noundef 102) #13
  %88 = load ptr, ptr @stderr, align 8, !tbaa !22
  %89 = call i32 @fflush(ptr noundef %88)
  %90 = load ptr, ptr %11, align 8, !tbaa !21
  call void @_ZN3zmq9zmq_abortEPKc(ptr noundef %90)
  call void @llvm.lifetime.end.p0(i64 8, ptr %11) #13
  br label %91

91:                                               ; preds = %81, %74
  br label %92

92:                                               ; preds = %91
  br label %93

93:                                               ; preds = %92
  %94 = call ptr @__errno_location() #14
  store i32 12, ptr %94, align 4, !tbaa !19
  store i32 -1, ptr %3, align 4
  store i32 1, ptr %7, align 4
  br label %102

95:                                               ; preds = %40
  %96 = getelementptr inbounds nuw %"class.zmq::v1_decoder_t", ptr %13, i32 0, i32 1
  %97 = getelementptr inbounds [8 x i8], ptr %96, i64 0, i64 0
  store { i64, i64 } { i64 ptrtoint (ptr @_ZN3zmq12v1_decoder_t11flags_readyEPKh to i64), i64 0 }, ptr %12, align 8, !tbaa !24
  %98 = getelementptr inbounds nuw { i64, i64 }, ptr %12, i32 0, i32 0
  %99 = load i64, ptr %98, align 8
  %100 = getelementptr inbounds nuw { i64, i64 }, ptr %12, i32 0, i32 1
  %101 = load i64, ptr %100, align 8
  call void @_ZN3zmq14decoder_base_tINS_12v1_decoder_tENS_18c_single_allocatorEE9next_stepEPvmMS1_FiPKhE(ptr noundef nonnull align 8 dereferenceable(64) %13, ptr noundef %97, i64 noundef 1, i64 %99, i64 %101)
  store i32 0, ptr %3, align 4
  store i32 1, ptr %7, align 4
  br label %102

102:                                              ; preds = %95, %93
  call void @llvm.lifetime.end.p0(i64 4, ptr %9) #13
  call void @llvm.lifetime.end.p0(i64 8, ptr %8) #13
  br label %103

103:                                              ; preds = %102, %38, %31, %19
  call void @llvm.lifetime.end.p0(i64 8, ptr %6) #13
  %104 = load i32, ptr %3, align 4
  ret i32 %104
}