; Function Attrs: mustprogress uwtable
define noundef range(i32 -1, 1) i32 @_ZN3zmq12v1_decoder_t21eight_byte_size_readyEPKh(ptr noundef nonnull align 8 dereferenceable(144) %0, ptr readnone captures(none) %1) #0 align 2 {
  %3 = getelementptr inbounds nuw i8, ptr %0, i64 64
  %4 = load i8, ptr %3, align 8, !tbaa !28
  %5 = zext i8 %4 to i64
  %6 = shl nuw i64 %5, 56
  %7 = getelementptr inbounds nuw i8, ptr %0, i64 65
  %8 = load i8, ptr %7, align 1, !tbaa !28
  %9 = zext i8 %8 to i64
  %10 = shl nuw nsw i64 %9, 48
  %11 = or disjoint i64 %10, %6
  %12 = getelementptr inbounds nuw i8, ptr %0, i64 66
  %13 = load i8, ptr %12, align 2, !tbaa !28
  %14 = zext i8 %13 to i64
  %15 = shl nuw nsw i64 %14, 40
  %16 = or disjoint i64 %11, %15
  %17 = getelementptr inbounds nuw i8, ptr %0, i64 67
  %18 = load i8, ptr %17, align 1, !tbaa !28
  %19 = zext i8 %18 to i64
  %20 = shl nuw nsw i64 %19, 32
  %21 = or disjoint i64 %16, %20
  %22 = getelementptr inbounds nuw i8, ptr %0, i64 68
  %23 = load i8, ptr %22, align 4, !tbaa !28
  %24 = zext i8 %23 to i64
  %25 = shl nuw nsw i64 %24, 24
  %26 = or disjoint i64 %21, %25
  %27 = getelementptr inbounds nuw i8, ptr %0, i64 69
  %28 = load i8, ptr %27, align 1, !tbaa !28
  %29 = zext i8 %28 to i64
  %30 = shl nuw nsw i64 %29, 16
  %31 = or disjoint i64 %26, %30
  %32 = getelementptr inbounds nuw i8, ptr %0, i64 70
  %33 = load i8, ptr %32, align 2, !tbaa !28
  %34 = zext i8 %33 to i64
  %35 = shl nuw nsw i64 %34, 8
  %36 = or i64 %31, %35
  %37 = getelementptr inbounds nuw i8, ptr %0, i64 71
  %38 = load i8, ptr %37, align 1, !tbaa !28
  %39 = zext i8 %38 to i64
  %40 = or i64 %36, %39
  %41 = icmp eq i64 %40, 0
  br i1 %41, label %42, label %44

42:                                               ; preds = %2
  %43 = tail call ptr @__errno_location() #18
  store i32 71, ptr %43, align 4, !tbaa !23
  br label %79

44:                                               ; preds = %2
  %45 = getelementptr inbounds nuw i8, ptr %0, i64 136
  %46 = load i64, ptr %45, align 8, !tbaa !19
  %47 = icmp sgt i64 %46, -1
  %48 = add i64 %40, -1
  %49 = icmp ugt i64 %48, %46
  %or.cond = and i1 %47, %49
  br i1 %or.cond, label %50, label %52

50:                                               ; preds = %44
  %51 = tail call ptr @__errno_location() #18
  store i32 90, ptr %51, align 4, !tbaa !23
  br label %79

52:                                               ; preds = %44
  %53 = getelementptr inbounds nuw i8, ptr %0, i64 72
  %54 = tail call noundef i32 @_ZN3zmq5msg_t5closeEv(ptr noundef nonnull align 8 dereferenceable(64) %53)
  %55 = tail call noundef i32 @_ZN3zmq5msg_t9init_sizeEm(ptr noundef nonnull align 8 dereferenceable(64) %53, i64 noundef %48)
  %.not = icmp eq i32 %55, 0
  br i1 %.not, label %75, label %56

56:                                               ; preds = %52
  %57 = tail call ptr @__errno_location() #18
  %58 = load i32, ptr %57, align 4, !tbaa !23
  %.not15 = icmp eq i32 %58, 12
  br i1 %.not15, label %65, label %59, !prof !22

59:                                               ; preds = %56
  %60 = tail call ptr @strerror(i32 noundef %58) #19
  %61 = load ptr, ptr @stderr, align 8, !tbaa !14
  %62 = tail call i32 (ptr, ptr, ...) @fprintf(ptr noundef %61, ptr noundef nonnull @.str, ptr noundef %60, ptr noundef nonnull @.str.1, i32 noundef 100) #17
  %63 = load ptr, ptr @stderr, align 8, !tbaa !14
  %64 = tail call i32 @fflush(ptr noundef %63)
  tail call void @_ZN3zmq9zmq_abortEPKc(ptr noundef %60)
  br label %65

65:                                               ; preds = %59, %56
  %66 = tail call noundef i32 @_ZN3zmq5msg_t4initEv(ptr noundef nonnull align 8 dereferenceable(64) %53)
  %.not16 = icmp eq i32 %66, 0
  br i1 %.not16, label %74, label %67, !prof !22

67:                                               ; preds = %65
  %68 = load i32, ptr %57, align 4, !tbaa !23
  %69 = tail call ptr @strerror(i32 noundef %68) #19
  %70 = load ptr, ptr @stderr, align 8, !tbaa !14
  %71 = tail call i32 (ptr, ptr, ...) @fprintf(ptr noundef %70, ptr noundef nonnull @.str, ptr noundef %69, ptr noundef nonnull @.str.1, i32 noundef 102) #17
  %72 = load ptr, ptr @stderr, align 8, !tbaa !14
  %73 = tail call i32 @fflush(ptr noundef %72)
  tail call void @_ZN3zmq9zmq_abortEPKc(ptr noundef %69)
  br label %74

74:                                               ; preds = %67, %65
  store i32 12, ptr %57, align 4, !tbaa !23
  br label %79

75:                                               ; preds = %52
  %76 = getelementptr inbounds nuw i8, ptr %0, i64 24
  store ptr %3, ptr %76, align 8, !tbaa !25
  %77 = getelementptr inbounds nuw i8, ptr %0, i64 32
  store i64 1, ptr %77, align 8, !tbaa !26
  %78 = getelementptr inbounds nuw i8, ptr %0, i64 8
  store i64 ptrtoint (ptr @_ZN3zmq12v1_decoder_t11flags_readyEPKh to i64), ptr %78, align 8, !tbaa !27
  %.repack8.i = getelementptr inbounds nuw i8, ptr %0, i64 16
  store i64 0, ptr %.repack8.i, align 8, !tbaa !27
  br label %79

79:                                               ; preds = %74, %75, %50, %42
  %.0 = phi i32 [ -1, %42 ], [ -1, %50 ], [ -1, %74 ], [ 0, %75 ]
  ret i32 %.0
}